
Module S:\projects\xds\XDS\samples\mand\mandset.mod
Group: 'DGROUP' CONST,_DATA,_BSS

--------------------------------------------------------------------------------
Segment:  _BSS  PARA  USE32  048f bytes

                               L0:
 0000  00 00 00 00                       ....
                               L1:
 0004  00 00 00 00                       ....
                               L2:
 0008  00 00 00 00                       ....
                               L3:
 000c  00 00 00 00                       ....
                               L4:
 0010  00 00                             ..
                               L5:
 0012  00 00                             ..
                               L6:
 0014  00 00 00 00                       ....
                               L7:
 0018  00 00 00 00                       ....
                               L8:
 001c  00 00 00 00                       ....
                               L9:
 0020  00 00 00 00                       ....
                               L10:
 0024  00 00 00 00                       ....
                               L11:
 0028  00 00 00 00 00 00 00 00           ........
 0030  00 00 00 00 00 00 00 00           ........
 0038  00 00 00 00 00 00 00 00           ........
 0040  00 00 00 00 00 00 00 00           ........
 0048  00 00 00 00 00 00 00 00           ........
 0050  00 00 00 00 00 00 00 00           ........
 0058  00 00 00 00 00 00 00 00           ........
 0060  00 00 00 00 00 00 00 00           ........
 0068  00 00 00 00 00 00 00 00           ........
 0070  00 00 00 00 00 00 00 00           ........
 0078  00 00 00 00 00 00 00 00           ........
 0080  00 00 00 00 00 00 00 00           ........
 0088  00 00 00 00 00 00 00 00           ........
 0090  00 00 00 00 00 00 00 00           ........
 0098  00 00 00 00 00 00 00 00           ........
 00a0  00 00 00 00 00 00 00 00           ........
 00a8  00 00 00 00 00 00 00 00           ........
 00b0  00 00 00 00 00 00 00 00           ........
 00b8  00 00 00 00 00 00 00 00           ........
 00c0  00 00 00 00 00 00 00 00           ........
 00c8  00 00 00 00 00 00 00 00           ........
 00d0  00 00 00 00 00 00 00 00           ........
 00d8  00 00 00 00 00 00 00 00           ........
 00e0  00 00 00 00 00 00 00 00           ........
 00e8  00 00 00 00 00 00 00 00           ........
 00f0  00 00 00 00 00 00 00 00           ........
 00f8  00 00 00 00 00 00 00 00           ........
 0100  00 00 00 00 00 00 00 00           ........
 0108  00 00 00 00 00 00 00 00           ........
 0110  00 00 00 00 00 00 00 00           ........
 0118  00 00 00 00 00 00 00 00           ........
 0120  00 00 00 00 00 00 00 00           ........
 0128  00 00 00 00 00 00 00 00           ........
 0130  00 00 00 00 00 00 00 00           ........
 0138  00 00 00 00 00 00 00 00           ........
 0140  00 00 00 00 00 00 00 00           ........
 0148  00 00 00 00 00 00 00 00           ........
 0150  00 00 00 00 00 00 00 00           ........
 0158  00 00 00 00 00 00 00 00           ........
 0160  00 00 00 00 00 00 00 00           ........
 0168  00 00 00 00 00 00 00 00           ........
 0170  00 00 00 00 00 00 00 00           ........
 0178  00 00 00 00 00 00 00 00           ........
 0180  00 00 00 00 00 00 00 00           ........
 0188  00 00 00 00 00 00 00 00           ........
 0190  00 00 00 00 00 00 00 00           ........
 0198  00 00 00 00 00 00 00 00           ........
 01a0  00 00 00 00 00 00 00 00           ........
 01a8  00 00 00 00 00 00 00 00           ........
 01b0  00 00 00 00 00 00 00 00           ........
 01b8  00 00 00 00 00 00 00 00           ........
 01c0  00 00 00 00 00 00 00 00           ........
 01c8  00 00 00 00 00 00 00 00           ........
 01d0  00 00 00 00 00 00 00 00           ........
 01d8  00 00 00 00 00 00 00 00           ........
 01e0  00 00 00 00 00 00 00 00           ........
 01e8  00 00 00 00 00 00 00 00           ........
 01f0  00 00 00 00 00 00 00 00           ........
 01f8  00 00 00 00 00 00 00 00           ........
 0200  00 00 00 00 00 00 00 00           ........
 0208  00 00 00 00 00 00 00 00           ........
 0210  00 00 00 00 00 00 00 00           ........
 0218  00 00 00 00 00 00 00 00           ........
 0220  00 00 00 00 00 00 00 00           ........
 0228  00 00 00 00 00 00 00 00           ........
 0230  00 00 00 00 00 00 00 00           ........
 0238  00 00 00 00 00 00 00 00           ........
 0240  00 00 00 00 00 00 00 00           ........
 0248  00 00 00 00 00 00 00 00           ........
 0250  00 00 00 00 00 00 00 00           ........
 0258  00 00 00 00 00 00 00 00           ........
 0260  00 00 00 00 00 00 00 00           ........
 0268  00 00 00 00 00 00 00 00           ........
 0270  00 00 00 00 00 00 00 00           ........
 0278  00 00 00 00 00 00 00 00           ........
 0280  00 00 00 00 00 00 00 00           ........
 0288  00 00 00 00 00 00 00 00           ........
 0290  00 00 00 00 00 00 00 00           ........
 0298  00 00 00 00 00 00 00 00           ........
 02a0  00 00 00 00 00 00 00 00           ........
 02a8  00 00 00 00 00 00 00 00           ........
 02b0  00 00 00 00 00 00 00 00           ........
 02b8  00 00 00 00 00 00 00 00           ........
 02c0  00 00 00 00 00 00 00 00           ........
 02c8  00 00 00 00 00 00 00 00           ........
 02d0  00 00 00 00 00 00 00 00           ........
 02d8  00 00 00 00 00 00 00 00           ........
 02e0  00 00 00 00 00 00 00 00           ........
 02e8  00 00 00 00 00 00 00 00           ........
 02f0  00 00 00 00 00 00 00 00           ........
 02f8  00 00 00 00 00 00 00 00           ........
 0300  00 00 00 00 00 00 00 00           ........
 0308  00 00 00 00 00 00 00 00           ........
 0310  00 00 00 00 00 00 00 00           ........
 0318  00 00 00 00 00 00 00 00           ........
 0320  00 00 00 00 00 00 00 00           ........
 0328  00 00 00 00 00 00 00 00           ........
 0330  00 00 00 00 00 00 00 00           ........
 0338  00 00 00 00 00 00 00 00           ........
 0340  00 00 00 00 00 00 00 00           ........
 0348  00 00 00 00 00 00 00 00           ........
 0350  00 00 00 00 00 00 00 00           ........
 0358  00 00 00 00 00 00 00 00           ........
 0360  00 00 00 00 00 00 00 00           ........
 0368  00 00 00 00 00 00 00 00           ........
 0370  00 00 00 00 00 00 00 00           ........
 0378  00 00 00 00 00 00 00 00           ........
 0380  00 00 00 00 00 00 00 00           ........
 0388  00 00 00 00 00 00 00 00           ........
 0390  00 00 00 00 00 00 00 00           ........
 0398  00 00 00 00 00 00 00 00           ........
 03a0  00 00 00 00 00 00 00 00           ........
 03a8  00 00 00 00 00 00 00 00           ........
 03b0  00 00 00 00 00 00 00 00           ........
 03b8  00 00 00 00 00 00 00 00           ........
 03c0  00 00 00 00 00 00 00 00           ........
 03c8  00 00 00 00 00 00 00 00           ........
 03d0  00 00 00 00 00 00 00 00           ........
 03d8  00 00 00 00 00 00 00 00           ........
 03e0  00 00 00 00 00 00 00 00           ........
 03e8  00 00 00 00 00 00 00 00           ........
 03f0  00 00 00 00 00 00 00 00           ........
 03f8  00 00 00 00 00 00 00 00           ........
 0400  00 00 00 00 00 00 00 00           ........
 0408  00 00 00 00 00 00 00 00           ........
 0410  00 00 00 00 00 00 00 00           ........
 0418  00 00 00 00 00 00 00 00           ........
 0420  00 00 00 00 00 00 00 00           ........
                               L12:
 0428  00                                .
                               L13:
 0429  00                                .
                               L14:
 042a  00                                .
                               L15:
 042b  00                                .
                               L16:
 042c  00                                .
                               L17:
 042d  00 00 00                          ...
                               L18:
 0430  00 00 00 00                       ....
                               L19:
 0434  00 00 00 00                       ....
                               L20:
 0438  00 00 00 00                       ....
                               L21:
 043c  00 00 00 00                       ....
                               L22:
 0440  00 00 00 00                       ....
                               L23:
 0444  00 00 00 00                       ....
                               L24:
 0448  00 00 00 00                       ....
                               L25:
 044c  00 00 00 00                       ....
                               L26:
 0450  00 00 00 00                       ....
                               L27:
 0454  00 00 00 00                       ....
                               L28:
 0458  00 00 00 00                       ....
                               L29:
 045c  00 00 00 00                       ....
                               L30:
 0460  00 00 00 00                       ....
                               L31:
 0464  00 00 00 00                       ....
                               L32:
 0468  00 00 00 00 00 00 00 00           ........
 0470  00 00 00 00 00 00 00 00           ........
 0478  00 00 00 00 00 00 00 00           ........
 0480  00 00 00 00 00 00 00 00           ........
 0488  00 00 00 00 00 00 00              .......

 No disassembly errors

--------------------------------------------------------------------------------
Segment:  _DATA  PARA  USE32  0118 bytes

                               L33:
 0000  43 6f 75 6c 64 6e 27 74           Couldn't
 0008  20 63 72 65 61 74 65 20            create 
 0010  6d 61 69 6e 20 77 69 6e           main win
 0018  64 6f 77 00                       dow.
                               L34:
 001c  43 6f 75 6c 64 6e 27 74           Couldn't
 0024  20 72 65 67 69 73 74 65            registe
 002c  72 20 43 6c 61 73 73 00           r Class.
                               L35:
 0034  43 6f 75 6c 64 6e 27 74           Couldn't
 003c  20 63 72 65 61 74 65 20            create 
 0044  77 69 6e 64 6f 77 00 00           window..
                               L36:
 004c  45 26 78 69 74 00 00 00           E&xit...
                               L37:
 0054  43 6f 70 26 79 00 00 00           Cop&y...
                               L38:
 005c  26 45 78 70 61 6e 64 00           &Expand.
                               L39:
 0064  26 52 65 66 72 65 73 68           &Refresh
 006c  00 00 00 00                       ....
                               L40:
 0070  4d 41 4e 43 6c 61 73 73           MANClass
 0078  00 00 00 00                       ....
                               L41:
 007c  4d 2d 53 65 74 00 00 00           M-Set...
                               L42:
 0084  00 00 00 40                       ...@
                               L43:
 0088  53 6f 72 72 79 2c 20 6e           Sorry, n
 0090  6f 20 6d 65 6d 6f 72 79           o memory
 0098  20 66 6f 72 20 61 20 62            for a b
 00a0  69 74 6d 61 70 00 00 00           itmap...
                               L44:
 00a8  0a 00 00 00                       ....
                               L45:
 00ac  00 00 80 40                       ..€@
                               L46:
 00b0  25 00 00 00                       %...
                               L47:
 00b4  43 61 6c 63 75 6c 61 74           Calculat
 00bc  65 64 20 00                       ed .
                               L48:
 00c0  3b 20 53 65 6c 65 63 74           ; Select
 00c8  69 6f 6e 3a 20 00 00 00           ion: ...
                               L49:
 00d0  2e 20 53 65 74 20 62 6f           . Set bo
 00d8  72 64 65 72 73 3a 20 00           rders: .
                               L50:
 00e0  54 69 6d 65 3a 20 00 00           Time: ..
                               L51:
 00e8  29 00 00 00                       )...
                               L52:
 00ec  2c 00 00 00                       ,...
                               L53:
 00f0  29 2d 28 00                       )-(.
                               L54:
 00f4  2c 00 00 00                       ,...
                               L55:
 00f8  28 00 00 00 6d 61 6e 64           (...mand
 0100  73 65 74 2e 6d 6f 64 00           set.mod.
 0108  75 6e 6b 6e 6f 77 6e 20           unknown 
 0110  66 69 6c 65 00 00 00 00           file....

 No disassembly errors

--------------------------------------------------------------------------------
Segment:  _TEXT  PARA  USE32  0070 bytes

                               L56:
 0000  33 c0                             xor       eax, eax
 0002  85 e4                             test      esp, esp
                               L57:
 0004  8b c8                             mov       ecx, eax
 0006  8b d0                             mov       edx, eax
 0008  c1 e9 06                          shr       ecx, 006H
 000b  c6 04 85 2f 00 00 00 00           mov       byte ptr [00000002FH+eax*4], 000H
 0013  c1 e1 06                          shl       ecx, 006H
 0016  88 0c 85 2e 00 00 00              mov       byte ptr [00000002EH+eax*4], cl
 001d  8b c8                             mov       ecx, eax
 001f  c1 ea 03                          shr       edx, 003H
 0022  83 e1 07                          and       ecx, 007H
 0025  c1 e1 05                          shl       ecx, 005H
 0028  83 e2 07                          and       edx, 007H
 002b  c1 e2 05                          shl       edx, 005H
 002e  88 0c 85 2c 00 00 00              mov       byte ptr [00000002CH+eax*4], cl
 0035  88 14 85 2d 00 00 00              mov       byte ptr [00000002DH+eax*4], dl
 003c  40                                inc       eax
 003d  3d fe 00 00 00                    cmp       eax, 0000000FEH
 0042  7e c0                             jle       L57 ; 
 0044  c6 05 2a 04 00 00 00              mov       byte ptr [L14], 000H
 004b  c6 05 29 04 00 00 00              mov       byte ptr [L13], 000H
 0052  c6 05 28 04 00 00 00              mov       byte ptr [L12], 000H
 0059  c6 05 2b 04 00 00 00              mov       byte ptr [L15], 000H
 0060  c3                                ret       
 0061  90                                nop       
 0062  90                                nop       
 0063  90                                nop       
 0064  90                                nop       
 0065  90                                nop       
 0066  90                                nop       
 0067  90                                nop       
 0068  90                                nop       
 0069  90                                nop       
 006a  90                                nop       
 006b  90                                nop       
 006c  90                                nop       
 006d  90                                nop       
 006e  90                                nop       
 006f  90                                nop       

 No disassembly errors

--------------------------------------------------------------------------------
Segment:  _TEXT  PARA  USE32  0070 bytes

                               L58:
 0000  c7 05 04 00 00 00 28 00 00 00     mov       dword ptr [L1], 000000028H
 000a  c7 05 08 00 00 00 00 00 00 00     mov       dword ptr [L2], 000000000H
 0014  c7 05 0c 00 00 00 00 00 00 00     mov       dword ptr [L3], 000000000H
 001e  66 c7 05 10 00 00 00 01 00        mov       word ptr [L4], 00001H
 0027  66 c7 05 12 00 00 00 08 00        mov       word ptr [L5], 00008H
 0030  c7 05 14 00 00 00 00 00 00 00     mov       dword ptr [L6], 000000000H
 003a  c7 05 18 00 00 00 00 00 00 00     mov       dword ptr [L7], 000000000H
 0044  c7 05 1c 00 00 00 00 00 00 00     mov       dword ptr [L8], 000000000H
 004e  c7 05 20 00 00 00 00 00 00 00     mov       dword ptr [L9], 000000000H
 0058  c7 05 24 00 00 00 00 00 00 00     mov       dword ptr [L10], 000000000H
 0062  c7 05 28 00 00 00 00 00 00 00     mov       dword ptr [L11], 000000000H
 006c  c3                                ret       
 006d  90                                nop       
 006e  90                                nop       
 006f  90                                nop       

 No disassembly errors

--------------------------------------------------------------------------------
Segment:  _TEXT  PARA  USE32  00f0 bytes

                               L59:
 0000  56                                push      esi
 0001  57                                push      edi
 0002  83 c4 b0                          add       esp, 0FFFFFFB0H
 0005  8b 7c 24 5c                       mov       edi, dword ptr [esp+05CH]
 0009  8b 74 24 60                       mov       esi, dword ptr [esp+060H]
 000d  56                                push      esi
 000e  57                                push      edi
 000f  6a 02                             push      002H
 0011  68 f8 00 00 00                    push      offset L55
 0016  e8 00 00 00 00                    call      Strings_Append
 001b  8d 04 24                          lea       eax, [esp]
 001e  6a 50                             push      050H
 0020  50                                push      eax
 0021  6a 04                             push      004H
 0023  ff 74 24 74                       push      dword ptr [esp+074H]
 0027  ff 74 24 74                       push      dword ptr [esp+074H]
 002b  e8 00 00 00 00                    call      LongStr_RealToFloat
 0030  8d 0c 24                          lea       ecx, [esp]
 0033  56                                push      esi
 0034  57                                push      edi
 0035  6a 50                             push      050H
 0037  51                                push      ecx
 0038  e8 00 00 00 00                    call      Strings_Append
 003d  56                                push      esi
 003e  57                                push      edi
 003f  6a 02                             push      002H
 0041  68 f4 00 00 00                    push      offset L54
 0046  e8 00 00 00 00                    call      Strings_Append
 004b  8d 04 24                          lea       eax, [esp]
 004e  6a 50                             push      050H
 0050  50                                push      eax
 0051  6a 04                             push      004H
 0053  ff 74 24 7c                       push      dword ptr [esp+07CH]
 0057  ff 74 24 7c                       push      dword ptr [esp+07CH]
 005b  e8 00 00 00 00                    call      LongStr_RealToFloat
 0060  8d 0c 24                          lea       ecx, [esp]
 0063  56                                push      esi
 0064  57                                push      edi
 0065  6a 50                             push      050H
 0067  51                                push      ecx
 0068  e8 00 00 00 00                    call      Strings_Append
 006d  56                                push      esi
 006e  57                                push      edi
 006f  6a 04                             push      004H
 0071  68 f0 00 00 00                    push      offset L53
 0076  e8 00 00 00 00                    call      Strings_Append
 007b  8d 04 24                          lea       eax, [esp]
 007e  6a 50                             push      050H
 0080  50                                push      eax
 0081  6a 04                             push      004H
 0083  ff b4 24 84 00 00 00              push      dword ptr [esp+084H]
 008a  ff b4 24 84 00 00 00              push      dword ptr [esp+084H]
 0091  e8 00 00 00 00                    call      LongStr_RealToFloat
 0096  8d 0c 24                          lea       ecx, [esp]
 0099  56                                push      esi
 009a  57                                push      edi
 009b  6a 50                             push      050H
 009d  51                                push      ecx
 009e  e8 00 00 00 00                    call      Strings_Append
 00a3  56                                push      esi
 00a4  57                                push      edi
 00a5  6a 02                             push      002H
 00a7  68 ec 00 00 00                    push      offset L52
 00ac  e8 00 00 00 00                    call      Strings_Append
 00b1  8d 04 24                          lea       eax, [esp]
 00b4  6a 50                             push      050H
 00b6  50                                push      eax
 00b7  6a 04                             push      004H
 00b9  ff b4 24 8c 00 00 00              push      dword ptr [esp+08CH]
 00c0  ff b4 24 8c 00 00 00              push      dword ptr [esp+08CH]
 00c7  e8 00 00 00 00                    call      LongStr_RealToFloat
 00cc  8d 0c 24                          lea       ecx, [esp]
 00cf  56                                push      esi
 00d0  57                                push      edi
 00d1  6a 50                             push      050H
 00d3  51                                push      ecx
 00d4  e8 00 00 00 00                    call      Strings_Append
 00d9  56                                push      esi
 00da  57                                push      edi
 00db  6a 02                             push      002H
 00dd  68 e8 00 00 00                    push      offset L51
 00e2  e8 00 00 00 00                    call      Strings_Append
 00e7  83 ec b0                          sub       esp, 0FFFFFFB0H
 00ea  5f                                pop       edi
 00eb  5e                                pop       esi
 00ec  c2 28 00                          ret       00028H
 00ef  90                                nop       

 No disassembly errors

--------------------------------------------------------------------------------
Segment:  _TEXT  PARA  USE32  0100 bytes

                               L60:
 0000  57                                push      edi
 0001  81 c4 00 fe ff ff                 add       esp, 0FFFFFE00H
 0007  8b bc 24 08 02 00 00              mov       edi, dword ptr [esp+0208H]
 000e  8d 84 24 00 01 00 00              lea       eax, [esp+0100H]
 0015  68 00 01 00 00                    push      000000100H
 001a  50                                push      eax
 001b  6a 07                             push      007H
 001d  68 e0 00 00 00                    push      offset L50
 0022  e8 00 00 00 00                    call      Strings_Assign
 0027  8d 0c 24                          lea       ecx, [esp]
 002a  68 00 01 00 00                    push      000000100H
 002f  51                                push      ecx
 0030  ff 77 64                          push      dword ptr [edi+064H]
 0033  e8 00 00 00 00                    call      WholeStr_IntToStr
 0038  8d 84 24 00 01 00 00              lea       eax, [esp+0100H]
 003f  8d 0c 24                          lea       ecx, [esp]
 0042  68 00 01 00 00                    push      000000100H
 0047  50                                push      eax
 0048  68 00 01 00 00                    push      000000100H
 004d  51                                push      ecx
 004e  e8 00 00 00 00                    call      Strings_Append
 0053  8d 84 24 00 01 00 00              lea       eax, [esp+0100H]
 005a  68 00 01 00 00                    push      000000100H
 005f  50                                push      eax
 0060  6a 10                             push      010H
 0062  68 d0 00 00 00                    push      offset L49
 0067  e8 00 00 00 00                    call      Strings_Append
 006c  8d 8c 24 00 01 00 00              lea       ecx, [esp+0100H]
 0073  ff 77 20                          push      dword ptr [edi+020H]
 0076  ff 77 1c                          push      dword ptr [edi+01CH]
 0079  ff 77 10                          push      dword ptr [edi+010H]
 007c  ff 77 0c                          push      dword ptr [edi+0CH]
 007f  ff 77 18                          push      dword ptr [edi+018H]
 0082  ff 77 14                          push      dword ptr [edi+014H]
 0085  ff 77 08                          push      dword ptr [edi+08H]
 0088  ff 77 04                          push      dword ptr [edi+04H]
 008b  68 00 01 00 00                    push      000000100H
 0090  51                                push      ecx
 0091  e8 00 00 00 00                    call      L59
 0096  8a 47 68                          mov       al, byte ptr [edi+068H]
 0099  84 c0                             test      al, al
 009b  74 43                             jz        L61 ; 
 009d  8d 84 24 00 01 00 00              lea       eax, [esp+0100H]
 00a4  68 00 01 00 00                    push      000000100H
 00a9  50                                push      eax
 00aa  6a 0e                             push      00EH
 00ac  68 c0 00 00 00                    push      offset L48
 00b1  e8 00 00 00 00                    call      Strings_Append
 00b6  8d 8c 24 00 01 00 00              lea       ecx, [esp+0100H]
 00bd  ff 77 60                          push      dword ptr [edi+060H]
 00c0  ff 77 5c                          push      dword ptr [edi+05CH]
 00c3  ff 77 50                          push      dword ptr [edi+050H]
 00c6  ff 77 4c                          push      dword ptr [edi+04CH]
 00c9  ff 77 58                          push      dword ptr [edi+058H]
 00cc  ff 77 54                          push      dword ptr [edi+054H]
 00cf  ff 77 48                          push      dword ptr [edi+048H]
 00d2  ff 77 44                          push      dword ptr [edi+044H]
 00d5  68 00 01 00 00                    push      000000100H
 00da  51                                push      ecx
 00db  e8 00 00 00 00                    call      L59
                               L61:
 00e0  8d 84 24 00 01 00 00              lea       eax, [esp+0100H]
 00e7  50                                push      eax
 00e8  ff 37                             push      dword ptr [edi]
 00ea  e8 00 00 00 00                    call      SetWindowTextA
 00ef  81 ec 00 fe ff ff                 sub       esp, 0FFFFFE00H
 00f5  5f                                pop       edi
 00f6  c2 04 00                          ret       00004H
 00f9  90                                nop       
 00fa  90                                nop       
 00fb  90                                nop       
 00fc  90                                nop       
 00fd  90                                nop       
 00fe  90                                nop       
 00ff  90                                nop       

 No disassembly errors

--------------------------------------------------------------------------------
Segment:  _TEXT  PARA  USE32  0030 bytes

                               L62:
 0000  dd 44 24 0c                       fld       qword ptr [esp+0CH]
 0004  dc 5c 24 04                       fcomp     qword ptr [esp+04H]
 0008  df e0                             fstsw     ax
 000a  80 e4 41                          and       ah, 041H
 000d  75 10                             jnz       L63 ; 
 000f  8b 44 24 10                       mov       eax, dword ptr [esp+010H]
 0013  89 44 24 08                       mov       dword ptr [esp+08H], eax
 0017  8b 44 24 0c                       mov       eax, dword ptr [esp+0CH]
 001b  89 44 24 04                       mov       dword ptr [esp+04H], eax
                               L63:
 001f  dd 44 24 04                       fld       qword ptr [esp+04H]
 0023  c2 10 00                          ret       00010H
 0026  90                                nop       
 0027  90                                nop       
 0028  90                                nop       
 0029  90                                nop       
 002a  90                                nop       
 002b  90                                nop       
 002c  90                                nop       
 002d  90                                nop       
 002e  90                                nop       
 002f  90                                nop       

 No disassembly errors

--------------------------------------------------------------------------------
Segment:  _TEXT  PARA  USE32  0050 bytes

                               L64:
 0000  8b 44 24 04                       mov       eax, dword ptr [esp+04H]
 0004  8b 48 74                          mov       ecx, dword ptr [eax+074H]
 0007  85 c9                             test      ecx, ecx
 0009  74 37                             jz        L65 ; 
 000b  8b 48 6c                          mov       ecx, dword ptr [eax+06CH]
 000e  6a 00                             push      000H
 0010  68 04 00 00 00                    push      offset L1
 0015  89 0d 08 00 00 00                 mov       dword ptr [L2], ecx
 001b  8b 50 70                          mov       edx, dword ptr [eax+070H]
 001e  89 15 0c 00 00 00                 mov       dword ptr [L3], edx
 0024  ff 70 74                          push      dword ptr [eax+074H]
 0027  8b 48 70                          mov       ecx, dword ptr [eax+070H]
 002a  51                                push      ecx
 002b  6a 00                             push      000H
 002d  6a 00                             push      000H
 002f  6a 00                             push      000H
 0031  51                                push      ecx
 0032  ff 70 6c                          push      dword ptr [eax+06CH]
 0035  6a 00                             push      000H
 0037  6a 00                             push      000H
 0039  ff 74 24 34                       push      dword ptr [esp+034H]
 003d  e8 00 00 00 00                    call      SetDIBitsToDevice
                               L65:
 0042  c2 08 00                          ret       00008H
 0045  90                                nop       
 0046  90                                nop       
 0047  90                                nop       
 0048  90                                nop       
 0049  90                                nop       
 004a  90                                nop       
 004b  90                                nop       
 004c  90                                nop       
 004d  90                                nop       
 004e  90                                nop       
 004f  90                                nop       

 No disassembly errors

--------------------------------------------------------------------------------
Segment:  _TEXT  PARA  USE32  0030 bytes

                               L66:
 0000  56                                push      esi
 0001  57                                push      edi
 0002  8b 7c 24 0c                       mov       edi, dword ptr [esp+0CH]
 0006  ff 37                             push      dword ptr [edi]
 0008  e8 00 00 00 00                    call      GetDC
 000d  8b f0                             mov       esi, eax
 000f  56                                push      esi
 0010  57                                push      edi
 0011  e8 00 00 00 00                    call      L64
 0016  56                                push      esi
 0017  ff 37                             push      dword ptr [edi]
 0019  e8 00 00 00 00                    call      ReleaseDC
 001e  5f                                pop       edi
 001f  5e                                pop       esi
 0020  c2 04 00                          ret       00004H
 0023  90                                nop       
 0024  90                                nop       
 0025  90                                nop       
 0026  90                                nop       
 0027  90                                nop       
 0028  90                                nop       
 0029  90                                nop       
 002a  90                                nop       
 002b  90                                nop       
 002c  90                                nop       
 002d  90                                nop       
 002e  90                                nop       
 002f  90                                nop       

 No disassembly errors

--------------------------------------------------------------------------------
Segment:  _TEXT  PARA  USE32  0070 bytes

                               L67:
 0000  81 c4 60 ff ff ff                 add       esp, 0FFFFFF60H
 0006  8d 44 24 50                       lea       eax, [esp+050H]
 000a  6a 50                             push      050H
 000c  50                                push      eax
 000d  6a 0c                             push      00CH
 000f  68 b4 00 00 00                    push      offset L47
 0014  e8 00 00 00 00                    call      Strings_Assign
 0019  8d 0c 24                          lea       ecx, [esp]
 001c  6a 50                             push      050H
 001e  51                                push      ecx
 001f  ff b4 24 ac 00 00 00              push      dword ptr [esp+0ACH]
 0026  e8 00 00 00 00                    call      WholeStr_IntToStr
 002b  8d 44 24 50                       lea       eax, [esp+050H]
 002f  8d 0c 24                          lea       ecx, [esp]
 0032  6a 50                             push      050H
 0034  50                                push      eax
 0035  6a 50                             push      050H
 0037  51                                push      ecx
 0038  e8 00 00 00 00                    call      Strings_Append
 003d  8d 44 24 50                       lea       eax, [esp+050H]
 0041  6a 50                             push      050H
 0043  50                                push      eax
 0044  6a 02                             push      002H
 0046  68 b0 00 00 00                    push      offset L46
 004b  e8 00 00 00 00                    call      Strings_Append
 0050  8d 4c 24 50                       lea       ecx, [esp+050H]
 0054  8b 84 24 a8 00 00 00              mov       eax, dword ptr [esp+0A8H]
 005b  51                                push      ecx
 005c  ff 30                             push      dword ptr [eax]
 005e  e8 00 00 00 00                    call      SetWindowTextA
 0063  81 ec 60 ff ff ff                 sub       esp, 0FFFFFF60H
 0069  c2 08 00                          ret       00008H
 006c  90                                nop       
 006d  90                                nop       
 006e  90                                nop       
 006f  90                                nop       

 No disassembly errors

--------------------------------------------------------------------------------
Segment:  _TEXT  PARA  USE32  01b0 bytes

                               L68:
 0000  55                                push      ebp
 0001  53                                push      ebx
 0002  56                                push      esi
 0003  57                                push      edi
 0004  83 c4 bc                          add       esp, 0FFFFFFBCH
 0007  8b 4c 24 60                       mov       ecx, dword ptr [esp+060H]
 000b  8b 44 24 5c                       mov       eax, dword ptr [esp+05CH]
 000f  8b 7c 24 58                       mov       edi, dword ptr [esp+058H]
 0013  83 c0 03                          add       eax, 003H
 0016  c1 f8 02                          sar       eax, 002H
 0019  49                                dec       ecx
 001a  89 4c 24 04                       mov       dword ptr [esp+04H], ecx
 001e  0f 8c db 00 00 00                 jl        L74 ; 
 0024  c7 44 24 18 00 00 00 00           mov       dword ptr [esp+018H], 000000000H
 002c  c7 44 24 1c 00 00 00 00           mov       dword ptr [esp+01CH], 000000000H
 0034  8d 34 85 ff ff ff ff              lea       esi, [0FFFFFFFFH+eax*4]
 003b  33 ed                             xor       ebp, ebp
 003d  33 db                             xor       ebx, ebx
 003f  90                                nop       
                               L69:
 0040  89 1c 24                          mov       dword ptr [esp], ebx
 0043  85 f6                             test      esi, esi
 0045  db 04 24                          fild      dword ptr [esp]
 0048  dc 4c 24 64                       fmul      qword ptr [esp+064H]
 004c  dc 47 34                          fadd      qword ptr [edi+034H]
 004f  7d 09                             jnl       L70 ; 
 0051  dd 5c 24 3c                       fstp      qword ptr [esp+03CH]
 0055  e9 b4 00 00 00                    jmp       L76 ; 
                               L70:
 005a  dd 5c 24 3c                       fstp      qword ptr [esp+03CH]
 005e  33 c9                             xor       ecx, ecx
 0060  dd 44 24 64                       fld       qword ptr [esp+064H]
                               L71:
 0064  89 0c 24                          mov       dword ptr [esp], ecx
 0067  8b 54 24 40                       mov       edx, dword ptr [esp+040H]
 006b  db 04 24                          fild      dword ptr [esp]
 006e  89 54 24 30                       mov       dword ptr [esp+030H], edx
 0072  8b 54 24 3c                       mov       edx, dword ptr [esp+03CH]
 0076  89 54 24 2c                       mov       dword ptr [esp+02CH], edx
 007a  33 d2                             xor       edx, edx
 007c  d8 c9                             fmul      ST(0), ST(1)
 007e  dc 47 24                          fadd      qword ptr [edi+024H]
 0081  dd 5c 24 34                       fstp      qword ptr [esp+034H]
 0085  8b 44 24 38                       mov       eax, dword ptr [esp+038H]
 0089  89 44 24 28                       mov       dword ptr [esp+028H], eax
 008d  8b 44 24 34                       mov       eax, dword ptr [esp+034H]
 0091  89 44 24 24                       mov       dword ptr [esp+024H], eax
 0095  dd 44 24 24                       fld       qword ptr [esp+024H]
 0099  d9 ee                             fldz      
 009b  dd 44 24 2c                       fld       qword ptr [esp+02CH]
 009f  d9 ee                             fldz      
 00a1  eb 28                             jmp       L73 ; 
 00a3  90                                nop       
                               L72:
 00a4  8d 42 01                          lea       eax, [edx+01H]
 00a7  81 fa fe 00 00 00                 cmp       edx, 0000000FEH
 00ad  0f 84 c9 00 00 00                 jz        L79 ; 
 00b3  d9 c3                             fld       ST(3)
 00b5  8b d0                             mov       edx, eax
 00b7  d8 c0                             fadd      ST(0), ST(0)
 00b9  d8 ca                             fmul      ST(0), ST(2)
 00bb  dc 44 24 3c                       fadd      qword ptr [esp+03CH]
 00bf  dd da                             fstp      ST(2)
 00c1  d9 c0                             fld       ST(0)
 00c3  d8 eb                             fsubr     ST(0), ST(3)
 00c5  dc 44 24 34                       fadd      qword ptr [esp+034H]
 00c9  dd dc                             fstp      ST(4)
                               L73:
 00cb  d9 c3                             fld       ST(3)
 00cd  d8 c8                             fmul      ST(0), ST(0)
 00cf  d9 c2                             fld       ST(2)
 00d1  d8 c8                             fmul      ST(0), ST(0)
 00d3  d9 c9                             fxch      ST(1)
 00d5  dd dc                             fstp      ST(4)
 00d7  dd d9                             fstp      ST(1)
 00d9  d9 c0                             fld       ST(0)
 00db  d8 c3                             fadd      ST(0), ST(3)
 00dd  d8 1d ac 00 00 00                 fcomp     dword ptr [L45]
 00e3  df e0                             fstsw     ax
 00e5  80 e4 01                          and       ah, 001H
 00e8  75 ba                             jnz       L72 ; 
 00ea  dd 5c 24 08                       fstp      qword ptr [esp+08H]
 00ee  dd 5c 24 2c                       fstp      qword ptr [esp+02CH]
 00f2  dd 5c 24 10                       fstp      qword ptr [esp+010H]
 00f6  dd 5c 24 24                       fstp      qword ptr [esp+024H]
 00fa  e9 8f 00 00 00                    jmp       L80 ; 
                               L74:
 00ff  83 ec bc                          sub       esp, 0FFFFFFBCH
 0102  5f                                pop       edi
 0103  5e                                pop       esi
 0104  5b                                pop       ebx
 0105  5d                                pop       ebp
 0106  c2 14 00                          ret       00014H
 0109  90                                nop       
 010a  90                                nop       
 010b  90                                nop       
                               L75:
 010c  dd d8                             fstp      ST(0)
                               L76:
 010e  83 44 24 1c 64                    add       dword ptr [esp+01CH], 064H
 0113  8b 44 24 1c                       mov       eax, dword ptr [esp+01CH]
 0117  8b 54 24 1c                       mov       edx, dword ptr [esp+01CH]
 011b  c1 fa 1f                          sar       edx, 01FH
 011e  f7 7c 24 60                       idiv      eax, dword ptr [esp+060H]
 0122  39 44 24 18                       cmp       dword ptr [esp+018H], eax
 0126  74 45                             jz        L78 ; 
 0128  83 f8 64                          cmp       eax, 064H
 012b  74 40                             jz        L78 ; 
 012d  57                                push      edi
 012e  50                                push      eax
 012f  89 44 24 08                       mov       dword ptr [esp+08H], eax
 0133  e8 00 00 00 00                    call      L67
 0138  8b 04 24                          mov       eax, dword ptr [esp]
 013b  50                                push      eax
 013c  8b d0                             mov       edx, eax
 013e  c1 fa 1f                          sar       edx, 01FH
 0141  f7 3d a8 00 00 00                 idiv      eax, dword ptr [L44]
 0147  8b c2                             mov       eax, edx
 0149  c1 f8 1f                          sar       eax, 01FH
 014c  83 e0 0a                          and       eax, 00AH
 014f  03 d0                             add       edx, eax
 0151  58                                pop       eax
 0152  85 d2                             test      edx, edx
 0154  74 06                             jz        L77 ; 
 0156  89 44 24 18                       mov       dword ptr [esp+018H], eax
 015a  eb 11                             jmp       L78 ; 
                               L77:
 015c  57                                push      edi
 015d  89 44 24 04                       mov       dword ptr [esp+04H], eax
 0161  e8 00 00 00 00                    call      L66
 0166  8b 04 24                          mov       eax, dword ptr [esp]
 0169  89 44 24 18                       mov       dword ptr [esp+018H], eax
                               L78:
 016d  43                                inc       ebx
 016e  39 5c 24 04                       cmp       dword ptr [esp+04H], ebx
 0172  0f 83 c8 fe ff ff                 jnb       L69 ; 
 0178  eb 85                             jmp       L74 ; 
 017a  85 e4                             test      esp, esp
                               L79:
 017c  dd 5c 24 08                       fstp      qword ptr [esp+08H]
 0180  8b d0                             mov       edx, eax
 0182  dd 5c 24 2c                       fstp      qword ptr [esp+02CH]
 0186  dd 5c 24 10                       fstp      qword ptr [esp+010H]
 018a  dd 5c 24 24                       fstp      qword ptr [esp+024H]
                               L80:
 018e  41                                inc       ecx
 018f  8b 47 74                          mov       eax, dword ptr [edi+074H]
 0192  88 14 28                          mov       byte ptr [eax+ebp], dl
 0195  45                                inc       ebp
 0196  3b f1                             cmp       esi, ecx
 0198  0f 83 c6 fe ff ff                 jnb       L71 ; 
 019e  e9 69 ff ff ff                    jmp       L75 ; 
 01a3  90                                nop       
 01a4  90                                nop       
 01a5  90                                nop       
 01a6  90                                nop       
 01a7  90                                nop       
 01a8  90                                nop       
 01a9  90                                nop       
 01aa  90                                nop       
 01ab  90                                nop       
 01ac  90                                nop       
 01ad  90                                nop       
 01ae  90                                nop       
 01af  90                                nop       

 No disassembly errors

--------------------------------------------------------------------------------
Segment:  _TEXT  PARA  USE32  0150 bytes

                               L81:
 0000  55                                push      ebp
 0001  53                                push      ebx
 0002  56                                push      esi
 0003  57                                push      edi
 0004  83 c4 b4                          add       esp, 0FFFFFFB4H
 0007  8d 44 24 3c                       lea       eax, [esp+03CH]
 000b  8b 7c 24 60                       mov       edi, dword ptr [esp+060H]
 000f  50                                push      eax
 0010  8d 5f 74                          lea       ebx, [edi+074H]
 0013  ff 37                             push      dword ptr [edi]
 0015  e8 00 00 00 00                    call      GetClientRect
 001a  8b 0b                             mov       ecx, dword ptr [ebx]
 001c  8b 6c 24 48                       mov       ebp, dword ptr [esp+048H]
 0020  8b 74 24 44                       mov       esi, dword ptr [esp+044H]
 0024  85 c9                             test      ecx, ecx
 0026  74 09                             jz        L82 ; 
 0028  ff 77 78                          push      dword ptr [edi+078H]
 002b  53                                push      ebx
 002c  e8 00 00 00 00                    call      Storage_DEALLOCATE
                               L82:
 0031  8d 46 03                          lea       eax, [esi+03H]
 0034  c1 f8 02                          sar       eax, 002H
 0037  0f af c5                          imul      eax, ebp
 003a  8d 14 85 00 00 00 00              lea       edx, [000000000H+eax*4]
 0041  89 57 78                          mov       dword ptr [edi+078H], edx
 0044  52                                push      edx
 0045  53                                push      ebx
 0046  89 54 24 08                       mov       dword ptr [esp+08H], edx
 004a  e8 00 00 00 00                    call      Storage_ALLOCATE
 004f  8b 14 24                          mov       edx, dword ptr [esp]
 0052  8b 0b                             mov       ecx, dword ptr [ebx]
 0054  85 c9                             test      ecx, ecx
 0056  0f 84 d3 00 00 00                 jz        L83 ; 
 005c  6a 00                             push      000H
 005e  52                                push      edx
 005f  51                                push      ecx
 0060  e8 00 00 00 00                    call      RtlFillMemory
 0065  dd 47 14                          fld       qword ptr [edi+014H]
 0068  dc 6f 1c                          fsubr     qword ptr [edi+01CH]
 006b  89 2c 24                          mov       dword ptr [esp], ebp
 006e  db 04 24                          fild      dword ptr [esp]
 0071  dd 5c 24 14                       fstp      qword ptr [esp+014H]
 0075  dc 74 24 14                       fdiv      qword ptr [esp+014H]
 0079  83 ec 08                          sub       esp, 008H
 007c  dd 1c 24                          fstp      qword ptr [esp]
 007f  dd 47 04                          fld       qword ptr [edi+04H]
 0082  dc 6f 0c                          fsubr     qword ptr [edi+0CH]
 0085  89 74 24 08                       mov       dword ptr [esp+08H], esi
 0089  db 44 24 08                       fild      dword ptr [esp+08H]
 008d  dd 5c 24 14                       fstp      qword ptr [esp+014H]
 0091  dc 74 24 14                       fdiv      qword ptr [esp+014H]
 0095  83 ec 08                          sub       esp, 008H
 0098  dd 1c 24                          fstp      qword ptr [esp]
 009b  e8 00 00 00 00                    call      L62
 00a0  dd 5c 24 34                       fstp      qword ptr [esp+034H]
 00a4  dd 47 0c                          fld       qword ptr [edi+0CH]
 00a7  dc 47 04                          fadd      qword ptr [edi+04H]
 00aa  dd 44 24 0c                       fld       qword ptr [esp+0CH]
 00ae  dc 4c 24 34                       fmul      qword ptr [esp+034H]
 00b2  dd 5c 24 0c                       fstp      qword ptr [esp+0CH]
 00b6  dc 64 24 0c                       fsub      qword ptr [esp+0CH]
 00ba  d8 35 84 00 00 00                 fdiv      dword ptr [L42]
 00c0  dd 54 24 04                       fst       qword ptr [esp+04H]
 00c4  dd 5f 24                          fstp      qword ptr [edi+024H]
 00c7  dd 44 24 0c                       fld       qword ptr [esp+0CH]
 00cb  dc 44 24 04                       fadd      qword ptr [esp+04H]
 00cf  dd 5f 2c                          fstp      qword ptr [edi+02CH]
 00d2  dd 47 1c                          fld       qword ptr [edi+01CH]
 00d5  dc 47 14                          fadd      qword ptr [edi+014H]
 00d8  dd 44 24 14                       fld       qword ptr [esp+014H]
 00dc  dc 4c 24 34                       fmul      qword ptr [esp+034H]
 00e0  dd 5c 24 14                       fstp      qword ptr [esp+014H]
 00e4  dc 64 24 14                       fsub      qword ptr [esp+014H]
 00e8  d8 35 84 00 00 00                 fdiv      dword ptr [L42]
 00ee  dd 54 24 0c                       fst       qword ptr [esp+0CH]
 00f2  dd 5f 34                          fstp      qword ptr [edi+034H]
 00f5  dd 44 24 14                       fld       qword ptr [esp+014H]
 00f9  dc 44 24 0c                       fadd      qword ptr [esp+0CH]
 00fd  dd 5f 3c                          fstp      qword ptr [edi+03CH]
 0100  89 77 6c                          mov       dword ptr [edi+06CH], esi
 0103  89 6f 70                          mov       dword ptr [edi+070H], ebp
 0106  e8 00 00 00 00                    call      GetTickCount
 010b  8b d8                             mov       ebx, eax
 010d  ff 74 24 38                       push      dword ptr [esp+038H]
 0111  ff 74 24 38                       push      dword ptr [esp+038H]
 0115  55                                push      ebp
 0116  56                                push      esi
 0117  57                                push      edi
 0118  e8 00 00 00 00                    call      L68
 011d  e8 00 00 00 00                    call      GetTickCount
 0122  2b c3                             sub       eax, ebx
 0124  89 47 64                          mov       dword ptr [edi+064H], eax
 0127  57                                push      edi
 0128  e8 00 00 00 00                    call      L60
 012d  eb 0c                             jmp       L84 ; 
                               L83:
 012f  68 88 00 00 00                    push      offset L43
 0134  ff 37                             push      dword ptr [edi]
 0136  e8 00 00 00 00                    call      SetWindowTextA
                               L84:
 013b  83 ec b4                          sub       esp, 0FFFFFFB4H
 013e  5f                                pop       edi
 013f  5e                                pop       esi
 0140  5b                                pop       ebx
 0141  5d                                pop       ebp
 0142  c2 04 00                          ret       00004H
 0145  90                                nop       
 0146  90                                nop       
 0147  90                                nop       
 0148  90                                nop       
 0149  90                                nop       
 014a  90                                nop       
 014b  90                                nop       
 014c  90                                nop       
 014d  90                                nop       
 014e  90                                nop       
 014f  90                                nop       

 No disassembly errors

--------------------------------------------------------------------------------
Segment:  _TEXT  PARA  USE32  00b0 bytes

                               L85:
 0000  55                                push      ebp
 0001  56                                push      esi
 0002  57                                push      edi
 0003  8b 6c 24 10                       mov       ebp, dword ptr [esp+010H]
 0007  8b 45 74                          mov       eax, dword ptr [ebp+074H]
 000a  85 c0                             test      eax, eax
 000c  0f 84 8c 00 00 00                 jz        L87 ; 
 0012  8b 45 6c                          mov       eax, dword ptr [ebp+06CH]
 0015  83 c0 03                          add       eax, 003H
 0018  c1 f8 02                          sar       eax, 002H
 001b  0f af 45 70                       imul      eax, dword ptr [ebp+070H]
 001f  8d 3c 85 00 00 00 00              lea       edi, [000000000H+eax*4]
 0026  8d 8f 28 04 00 00                 lea       ecx, [edi+0428H]
 002c  51                                push      ecx
 002d  68 02 20 00 00                    push      000002002H
 0032  e8 00 00 00 00                    call      GlobalAlloc
 0037  8b f0                             mov       esi, eax
 0039  85 f6                             test      esi, esi
 003b  74 61                             jz        L87 ; 
 003d  56                                push      esi
 003e  e8 00 00 00 00                    call      GlobalLock
 0043  b9 0a 01 00 00                    mov       ecx, 00000010AH
 0048  56                                push      esi
 0049  56                                push      esi
 004a  c7 c6 04 00 00 00                 mov       esi, offset L1
 0050  57                                push      edi
 0051  8b f8                             mov       edi, eax
 0053  05 28 04 00 00                    add       eax, 000000428H
 0058  f3 a5                             rep       movsd     
 005a  5f                                pop       edi
 005b  5e                                pop       esi
 005c  8b 4d 74                          mov       ecx, dword ptr [ebp+074H]
 005f  56                                push      esi
 0060  8b f1                             mov       esi, ecx
 0062  8b cf                             mov       ecx, edi
 0064  8b f8                             mov       edi, eax
 0066  51                                push      ecx
 0067  c1 e9 02                          shr       ecx, 002H
 006a  f3 a5                             rep       movsd     
 006c  59                                pop       ecx
 006d  83 e1 03                          and       ecx, 003H
 0070  f3 a4                             rep       movsb     
 0072  5e                                pop       esi
 0073  e8 00 00 00 00                    call      GlobalUnlock
 0078  ff 75 00                          push      dword ptr [ebp]
 007b  e8 00 00 00 00                    call      OpenClipboard
 0080  85 c0                             test      eax, eax
 0082  74 14                             jz        L86 ; 
 0084  e8 00 00 00 00                    call      EmptyClipboard
 0089  56                                push      esi
 008a  6a 08                             push      008H
 008c  e8 00 00 00 00                    call      SetClipboardData
 0091  e8 00 00 00 00                    call      CloseClipboard
 0096  eb 06                             jmp       L87 ; 
                               L86:
 0098  56                                push      esi
 0099  e8 00 00 00 00                    call      GlobalFree
                               L87:
 009e  5f                                pop       edi
 009f  5e                                pop       esi
 00a0  5d                                pop       ebp
 00a1  c2 04 00                          ret       00004H
 00a4  90                                nop       
 00a5  90                                nop       
 00a6  90                                nop       
 00a7  90                                nop       
 00a8  90                                nop       
 00a9  90                                nop       
 00aa  90                                nop       
 00ab  90                                nop       
 00ac  90                                nop       
 00ad  90                                nop       
 00ae  90                                nop       
 00af  90                                nop       

 No disassembly errors

--------------------------------------------------------------------------------
Segment:  _TEXT  PARA  USE32  0080 bytes

                               L88:
 0000  56                                push      esi
 0001  57                                push      edi
 0002  83 c4 f0                          add       esp, 0FFFFFFF0H
 0005  8b 7c 24 1c                       mov       edi, dword ptr [esp+01CH]
 0009  57                                push      edi
 000a  e8 00 00 00 00                    call      GetDC
 000f  8b f0                             mov       esi, eax
 0011  ff 35 34 04 00 00                 push      dword ptr [L19]
 0017  ff 35 3c 04 00 00                 push      dword ptr [L21]
 001d  e8 00 00 00 00                    call      min
 0022  89 04 24                          mov       dword ptr [esp], eax
 0025  ff 35 34 04 00 00                 push      dword ptr [L19]
 002b  ff 35 3c 04 00 00                 push      dword ptr [L21]
 0031  e8 00 00 00 00                    call      max
 0036  89 44 24 08                       mov       dword ptr [esp+08H], eax
 003a  ff 35 30 04 00 00                 push      dword ptr [L18]
 0040  ff 35 38 04 00 00                 push      dword ptr [L20]
 0046  e8 00 00 00 00                    call      min
 004b  89 44 24 04                       mov       dword ptr [esp+04H], eax
 004f  ff 35 30 04 00 00                 push      dword ptr [L18]
 0055  ff 35 38 04 00 00                 push      dword ptr [L20]
 005b  e8 00 00 00 00                    call      max
 0060  8d 0c 24                          lea       ecx, [esp]
 0063  89 44 24 0c                       mov       dword ptr [esp+0CH], eax
 0067  51                                push      ecx
 0068  56                                push      esi
 0069  e8 00 00 00 00                    call      DrawFocusRect
 006e  56                                push      esi
 006f  57                                push      edi
 0070  e8 00 00 00 00                    call      ReleaseDC
 0075  83 ec f0                          sub       esp, 0FFFFFFF0H
 0078  5f                                pop       edi
 0079  5e                                pop       esi
 007a  c2 04 00                          ret       00004H
 007d  90                                nop       
 007e  90                                nop       
 007f  90                                nop       

 No disassembly errors

--------------------------------------------------------------------------------
Segment:  _TEXT  PARA  USE32  0120 bytes

                               L89:
 0000  57                                push      edi
 0001  83 c4 9c                          add       esp, 0FFFFFF9CH
 0004  8d 44 24 54                       lea       eax, [esp+054H]
 0008  8b 7c 24 6c                       mov       edi, dword ptr [esp+06CH]
 000c  50                                push      eax
 000d  ff 37                             push      dword ptr [edi]
 000f  e8 00 00 00 00                    call      GetClientRect
 0014  dd 47 24                          fld       qword ptr [edi+024H]
 0017  dd 54 24 1c                       fst       qword ptr [esp+01CH]
 001b  dc 6f 2c                          fsubr     qword ptr [edi+02CH]
 001e  dd 47 34                          fld       qword ptr [edi+034H]
 0021  dc 6f 3c                          fsubr     qword ptr [edi+03CH]
 0024  d9 c9                             fxch      ST(1)
 0026  dd 5c 24 14                       fstp      qword ptr [esp+014H]
 002a  dd 5c 24 04                       fstp      qword ptr [esp+04H]
 002e  dd 44 24 14                       fld       qword ptr [esp+014H]
 0032  da 77 6c                          fidiv     dword ptr [edi+06CH]
 0035  dd 5c 24 0c                       fstp      qword ptr [esp+0CH]
 0039  ff 35 34 04 00 00                 push      dword ptr [L19]
 003f  ff 35 3c 04 00 00                 push      dword ptr [L21]
 0045  e8 00 00 00 00                    call      min
 004a  89 04 24                          mov       dword ptr [esp], eax
 004d  db 04 24                          fild      dword ptr [esp]
 0050  dc 4c 24 0c                       fmul      qword ptr [esp+0CH]
 0054  dc 44 24 1c                       fadd      qword ptr [esp+01CH]
 0058  dd 5f 44                          fstp      qword ptr [edi+044H]
 005b  dd 47 24                          fld       qword ptr [edi+024H]
 005e  dd 5c 24 0c                       fstp      qword ptr [esp+0CH]
 0062  dd 44 24 14                       fld       qword ptr [esp+014H]
 0066  da 77 6c                          fidiv     dword ptr [edi+06CH]
 0069  dd 5c 24 1c                       fstp      qword ptr [esp+01CH]
 006d  ff 35 34 04 00 00                 push      dword ptr [L19]
 0073  ff 35 3c 04 00 00                 push      dword ptr [L21]
 0079  e8 00 00 00 00                    call      max
 007e  89 04 24                          mov       dword ptr [esp], eax
 0081  db 04 24                          fild      dword ptr [esp]
 0084  dc 4c 24 1c                       fmul      qword ptr [esp+01CH]
 0088  dc 44 24 0c                       fadd      qword ptr [esp+0CH]
 008c  dd 5f 4c                          fstp      qword ptr [edi+04CH]
 008f  dd 47 34                          fld       qword ptr [edi+034H]
 0092  8b 4c 24 60                       mov       ecx, dword ptr [esp+060H]
 0096  dd 5c 24 0c                       fstp      qword ptr [esp+0CH]
 009a  8b c1                             mov       eax, ecx
 009c  2b 0d 38 04 00 00                 sub       ecx, dword ptr [L20]
 00a2  dd 44 24 04                       fld       qword ptr [esp+04H]
 00a6  2b 05 30 04 00 00                 sub       eax, dword ptr [L18]
 00ac  da 77 70                          fidiv     dword ptr [edi+070H]
 00af  dd 5c 24 1c                       fstp      qword ptr [esp+01CH]
 00b3  50                                push      eax
 00b4  51                                push      ecx
 00b5  e8 00 00 00 00                    call      min
 00ba  89 04 24                          mov       dword ptr [esp], eax
 00bd  db 04 24                          fild      dword ptr [esp]
 00c0  dc 4c 24 1c                       fmul      qword ptr [esp+01CH]
 00c4  dc 44 24 0c                       fadd      qword ptr [esp+0CH]
 00c8  dd 5f 54                          fstp      qword ptr [edi+054H]
 00cb  dd 47 34                          fld       qword ptr [edi+034H]
 00ce  8b 4c 24 60                       mov       ecx, dword ptr [esp+060H]
 00d2  dd 5c 24 0c                       fstp      qword ptr [esp+0CH]
 00d6  8b d1                             mov       edx, ecx
 00d8  dd 44 24 04                       fld       qword ptr [esp+04H]
 00dc  da 77 70                          fidiv     dword ptr [edi+070H]
 00df  dd 5c 24 04                       fstp      qword ptr [esp+04H]
 00e3  2b 15 30 04 00 00                 sub       edx, dword ptr [L18]
 00e9  2b 0d 38 04 00 00                 sub       ecx, dword ptr [L20]
 00ef  52                                push      edx
 00f0  51                                push      ecx
 00f1  e8 00 00 00 00                    call      max
 00f6  57                                push      edi
 00f7  89 44 24 04                       mov       dword ptr [esp+04H], eax
 00fb  db 44 24 04                       fild      dword ptr [esp+04H]
 00ff  dc 4c 24 08                       fmul      qword ptr [esp+08H]
 0103  dc 44 24 10                       fadd      qword ptr [esp+010H]
 0107  dd 5f 5c                          fstp      qword ptr [edi+05CH]
 010a  c6 47 68 01                       mov       byte ptr [edi+068H], 001H
 010e  e8 00 00 00 00                    call      L60
 0113  83 ec 9c                          sub       esp, 0FFFFFF9CH
 0116  5f                                pop       edi
 0117  c2 04 00                          ret       00004H
 011a  90                                nop       
 011b  90                                nop       
 011c  90                                nop       
 011d  90                                nop       
 011e  90                                nop       
 011f  90                                nop       

 No disassembly errors

--------------------------------------------------------------------------------
Segment:  _TEXT  PARA  USE32  0060 bytes

                               L90:
 0000  56                                push      esi
 0001  57                                push      edi
 0002  83 c4 f0                          add       esp, 0FFFFFFF0H
 0005  8d 04 24                          lea       eax, [esp]
 0008  8b 7c 24 20                       mov       edi, dword ptr [esp+020H]
 000c  8b 74 24 24                       mov       esi, dword ptr [esp+024H]
 0010  50                                push      eax
 0011  ff 74 24 20                       push      dword ptr [esp+020H]
 0015  e8 00 00 00 00                    call      GetClientRect
 001a  8b 0f                             mov       ecx, dword ptr [edi]
 001c  85 c9                             test      ecx, ecx
 001e  7d 08                             jnl       L91 ; 
 0020  c7 07 00 00 00 00                 mov       dword ptr [edi], 000000000H
 0026  eb 0a                             jmp       L92 ; 
                               L91:
 0028  8b 44 24 08                       mov       eax, dword ptr [esp+08H]
 002c  3b c1                             cmp       eax, ecx
 002e  7d 02                             jnl       L92 ; 
 0030  89 07                             mov       dword ptr [edi], eax
                               L92:
 0032  8b 06                             mov       eax, dword ptr [esi]
 0034  85 c0                             test      eax, eax
 0036  7d 08                             jnl       L93 ; 
 0038  c7 06 00 00 00 00                 mov       dword ptr [esi], 000000000H
 003e  eb 0a                             jmp       L94 ; 
                               L93:
 0040  8b 4c 24 0c                       mov       ecx, dword ptr [esp+0CH]
 0044  3b c8                             cmp       ecx, eax
 0046  7d 02                             jnl       L94 ; 
 0048  89 0e                             mov       dword ptr [esi], ecx
                               L94:
 004a  83 ec f0                          sub       esp, 0FFFFFFF0H
 004d  5f                                pop       edi
 004e  5e                                pop       esi
 004f  c2 0c 00                          ret       0000CH
 0052  90                                nop       
 0053  90                                nop       
 0054  90                                nop       
 0055  90                                nop       
 0056  90                                nop       
 0057  90                                nop       
 0058  90                                nop       
 0059  90                                nop       
 005a  90                                nop       
 005b  90                                nop       
 005c  90                                nop       
 005d  90                                nop       
 005e  90                                nop       
 005f  90                                nop       

 No disassembly errors

--------------------------------------------------------------------------------
Segment:  _TEXT  PARA  USE32  0070 bytes

                               L95:
 0000  57                                push      edi
 0001  8b 7c 24 08                       mov       edi, dword ptr [esp+08H]
 0005  8b 47 74                          mov       eax, dword ptr [edi+074H]
 0008  85 c0                             test      eax, eax
 000a  74 55                             jz        L97 ; 
 000c  8a 0d 2d 04 00 00                 mov       cl, byte ptr [L17]
 0012  84 c9                             test      cl, cl
 0014  74 07                             jz        L96 ; 
 0016  ff 37                             push      dword ptr [edi]
 0018  e8 00 00 00 00                    call      L88
                               L96:
 001d  8d 44 24 10                       lea       eax, [esp+010H]
 0021  8d 4c 24 0c                       lea       ecx, [esp+0CH]
 0025  50                                push      eax
 0026  51                                push      ecx
 0027  ff 37                             push      dword ptr [edi]
 0029  e8 00 00 00 00                    call      L90
 002e  c6 05 2c 04 00 00 01              mov       byte ptr [L16], 001H
 0035  c6 05 2d 04 00 00 00              mov       byte ptr [L17], 000H
 003c  8b 44 24 0c                       mov       eax, dword ptr [esp+0CH]
 0040  8b 4c 24 10                       mov       ecx, dword ptr [esp+010H]
 0044  a3 3c 04 00 00                    mov       dword ptr [L21], eax
 0049  89 0d 30 04 00 00                 mov       dword ptr [L18], ecx
 004f  89 0d 38 04 00 00                 mov       dword ptr [L20], ecx
 0055  a3 34 04 00 00                    mov       dword ptr [L19], eax
 005a  ff 37                             push      dword ptr [edi]
 005c  e8 00 00 00 00                    call      SetCapture
                               L97:
 0061  5f                                pop       edi
 0062  c2 0c 00                          ret       0000CH
 0065  90                                nop       
 0066  90                                nop       
 0067  90                                nop       
 0068  90                                nop       
 0069  90                                nop       
 006a  90                                nop       
 006b  90                                nop       
 006c  90                                nop       
 006d  90                                nop       
 006e  90                                nop       
 006f  90                                nop       

 No disassembly errors

--------------------------------------------------------------------------------
Segment:  _TEXT  PARA  USE32  0060 bytes

                               L98:
 0000  57                                push      edi
 0001  a0 2c 04 00 00                    mov       al, byte ptr [L16]
 0006  84 c0                             test      al, al
 0008  8b 7c 24 08                       mov       edi, dword ptr [esp+08H]
 000c  74 49                             jz        L100 ; 
 000e  8a 0d 2d 04 00 00                 mov       cl, byte ptr [L17]
 0014  84 c9                             test      cl, cl
 0016  74 07                             jz        L99 ; 
 0018  ff 37                             push      dword ptr [edi]
 001a  e8 00 00 00 00                    call      L88
                               L99:
 001f  8d 44 24 10                       lea       eax, [esp+010H]
 0023  8d 4c 24 0c                       lea       ecx, [esp+0CH]
 0027  50                                push      eax
 0028  51                                push      ecx
 0029  ff 37                             push      dword ptr [edi]
 002b  e8 00 00 00 00                    call      L90
 0030  8b 44 24 0c                       mov       eax, dword ptr [esp+0CH]
 0034  8b 4c 24 10                       mov       ecx, dword ptr [esp+010H]
 0038  89 0d 30 04 00 00                 mov       dword ptr [L18], ecx
 003e  a3 34 04 00 00                    mov       dword ptr [L19], eax
 0043  ff 37                             push      dword ptr [edi]
 0045  e8 00 00 00 00                    call      L88
 004a  c6 05 2d 04 00 00 01              mov       byte ptr [L17], 001H
 0051  57                                push      edi
 0052  e8 00 00 00 00                    call      L89
                               L100:
 0057  5f                                pop       edi
 0058  c2 0c 00                          ret       0000CH
 005b  90                                nop       
 005c  90                                nop       
 005d  90                                nop       
 005e  90                                nop       
 005f  90                                nop       

 No disassembly errors

--------------------------------------------------------------------------------
Segment:  _TEXT  PARA  USE32  0070 bytes

                               L101:
 0000  57                                push      edi
 0001  a0 2c 04 00 00                    mov       al, byte ptr [L16]
 0006  84 c0                             test      al, al
 0008  8b 7c 24 08                       mov       edi, dword ptr [esp+08H]
 000c  74 57                             jz        L104 ; 
 000e  8a 0d 2d 04 00 00                 mov       cl, byte ptr [L17]
 0014  84 c9                             test      cl, cl
 0016  74 10                             jz        L102 ; 
 0018  c6 05 2c 04 00 00 00              mov       byte ptr [L16], 000H
 001f  ff 37                             push      dword ptr [edi]
 0021  e8 00 00 00 00                    call      L88
 0026  eb 07                             jmp       L103 ; 
                               L102:
 0028  c6 05 2c 04 00 00 00              mov       byte ptr [L16], 000H
                               L103:
 002f  c6 05 2d 04 00 00 00              mov       byte ptr [L17], 000H
 0036  e8 00 00 00 00                    call      ReleaseCapture
 003b  8d 44 24 10                       lea       eax, [esp+010H]
 003f  8d 4c 24 0c                       lea       ecx, [esp+0CH]
 0043  50                                push      eax
 0044  51                                push      ecx
 0045  ff 37                             push      dword ptr [edi]
 0047  e8 00 00 00 00                    call      L90
 004c  8b 4c 24 10                       mov       ecx, dword ptr [esp+010H]
 0050  8b 44 24 0c                       mov       eax, dword ptr [esp+0CH]
 0054  89 0d 30 04 00 00                 mov       dword ptr [L18], ecx
 005a  57                                push      edi
 005b  a3 34 04 00 00                    mov       dword ptr [L19], eax
 0060  e8 00 00 00 00                    call      L89
                               L104:
 0065  5f                                pop       edi
 0066  c2 0c 00                          ret       0000CH
 0069  90                                nop       
 006a  90                                nop       
 006b  90                                nop       
 006c  90                                nop       
 006d  90                                nop       
 006e  90                                nop       
 006f  90                                nop       

 No disassembly errors

--------------------------------------------------------------------------------
Segment:  _TEXT  PARA  USE32  0040 bytes

                               L105:
 0000  a0 2c 04 00 00                    mov       al, byte ptr [L16]
 0005  84 c0                             test      al, al
 0007  74 31                             jz        L108 ; 
 0009  8a 0d 2d 04 00 00                 mov       cl, byte ptr [L17]
 000f  84 c9                             test      cl, cl
 0011  74 14                             jz        L106 ; 
 0013  c6 05 2c 04 00 00 00              mov       byte ptr [L16], 000H
 001a  8b 54 24 04                       mov       edx, dword ptr [esp+04H]
 001e  ff 32                             push      dword ptr [edx]
 0020  e8 00 00 00 00                    call      L88
 0025  eb 07                             jmp       L107 ; 
                               L106:
 0027  c6 05 2c 04 00 00 00              mov       byte ptr [L16], 000H
                               L107:
 002e  c6 05 2d 04 00 00 00              mov       byte ptr [L17], 000H
 0035  e8 00 00 00 00                    call      ReleaseCapture
                               L108:
 003a  c2 04 00                          ret       00004H
 003d  90                                nop       
 003e  90                                nop       
 003f  90                                nop       

 No disassembly errors

--------------------------------------------------------------------------------
Segment:  _TEXT  PARA  USE32  0080 bytes

                               L109:
 0000  57                                push      edi
 0001  6a 00                             push      000H
 0003  e8 00 00 00 00                    call      GetModuleHandleA
 0008  6a 00                             push      000H
 000a  50                                push      eax
 000b  6a 00                             push      000H
 000d  6a 00                             push      000H
 000f  68 00 00 00 80                    push      080000000H
 0014  68 00 00 00 80                    push      080000000H
 0019  68 00 00 00 80                    push      080000000H
 001e  68 00 00 00 80                    push      080000000H
 0023  68 00 00 cf 10                    push      010CF0000H
 0028  68 7c 00 00 00                    push      offset L41
 002d  68 70 00 00 00                    push      offset L40
 0032  e8 00 00 00 00                    call      CreateWindowA
 0037  8b f8                             mov       edi, eax
 0039  85 ff                             test      edi, edi
 003b  74 3b                             jz        L110 ; 
 003d  6a eb                             push      0FFFFFFEBH
 003f  57                                push      edi
 0040  e8 00 00 00 00                    call      GetWindowLongA
 0045  dd 44 24 08                       fld       qword ptr [esp+08H]
 0049  dd 58 04                          fstp      qword ptr [eax+04H]
 004c  dd 44 24 18                       fld       qword ptr [esp+018H]
 0050  dd 58 14                          fstp      qword ptr [eax+014H]
 0053  dd 44 24 10                       fld       qword ptr [esp+010H]
 0057  dd 58 0c                          fstp      qword ptr [eax+0CH]
 005a  dd 44 24 20                       fld       qword ptr [esp+020H]
 005e  dd 58 1c                          fstp      qword ptr [eax+01CH]
 0061  8a 44 24 28                       mov       al, byte ptr [esp+028H]
 0065  84 c0                             test      al, al
 0067  74 0f                             jz        L110 ; 
 0069  6a 00                             push      000H
 006b  6a 00                             push      000H
 006d  68 e8 07 00 00                    push      0000007E8H
 0072  57                                push      edi
 0073  e8 00 00 00 00                    call      PostMessageA
                               L110:
 0078  8b c7                             mov       eax, edi
 007a  5f                                pop       edi
 007b  c2 24 00                          ret       00024H
 007e  90                                nop       
 007f  90                                nop       

 No disassembly errors

--------------------------------------------------------------------------------
Segment:  _TEXT  PARA  USE32  0010 bytes

                               L111:
 0000  ff 74 24 04                       push      dword ptr [esp+04H]
 0004  e8 00 00 00 00                    call      LOWORD
 0009  98                                cwde      
 000a  c2 04 00                          ret       00004H
 000d  90                                nop       
 000e  90                                nop       
 000f  90                                nop       

 No disassembly errors

--------------------------------------------------------------------------------
Segment:  _TEXT  PARA  USE32  0010 bytes

                               L112:
 0000  ff 74 24 04                       push      dword ptr [esp+04H]
 0004  e8 00 00 00 00                    call      HIWORD
 0009  98                                cwde      
 000a  c2 04 00                          ret       00004H
 000d  90                                nop       
 000e  90                                nop       
 000f  90                                nop       

 No disassembly errors

--------------------------------------------------------------------------------
Segment:  _TEXT  PARA  USE32  0480 bytes

                               L113:
 0000  55                                push      ebp
 0001  53                                push      ebx
 0002  56                                push      esi
 0003  57                                push      edi
 0004  83 c4 b8                          add       esp, 0FFFFFFB8H
 0007  8b 7c 24 5c                       mov       edi, dword ptr [esp+05CH]
 000b  8b 74 24 60                       mov       esi, dword ptr [esp+060H]
 000f  8b 6c 24 64                       mov       ebp, dword ptr [esp+064H]
 0013  8b 5c 24 68                       mov       ebx, dword ptr [esp+068H]
 0017  6a eb                             push      0FFFFFFEBH
 0019  57                                push      edi
 001a  e8 00 00 00 00                    call      GetWindowLongA
 001f  81 fe 04 02 00 00                 cmp       esi, 000000204H
 0025  8b d0                             mov       edx, eax
 0027  0f 86 8f 00 00 00                 jbe       L117 ; 
 002d  8d 8e 18 f8 ff ff                 lea       ecx, [esi-07E8H]
 0033  83 f9 01                          cmp       ecx, 001H
 0036  0f 87 3b 03 00 00                 jnbe      L128 ; 
 003c  83 f9 00                          cmp       ecx, 000H
 003f  76 61                             jbe       L116 ; 
 0041  8a 4a 68                          mov       cl, byte ptr [edx+068H]
 0044  84 c9                             test      cl, cl
 0046  74 53                             jz        L115 ; 
 0048  6a 01                             push      001H
 004a  ff 72 60                          push      dword ptr [edx+060H]
 004d  ff 72 5c                          push      dword ptr [edx+05CH]
 0050  ff 72 58                          push      dword ptr [edx+058H]
 0053  ff 72 54                          push      dword ptr [edx+054H]
 0056  ff 72 50                          push      dword ptr [edx+050H]
 0059  ff 72 4c                          push      dword ptr [edx+04CH]
 005c  ff 72 48                          push      dword ptr [edx+048H]
 005f  ff 72 44                          push      dword ptr [edx+044H]
 0062  89 54 24 68                       mov       dword ptr [esp+068H], edx
 0066  e8 00 00 00 00                    call      L109
 006b  85 c0                             test      eax, eax
 006d  8b 54 24 44                       mov       edx, dword ptr [esp+044H]
 0071  75 17                             jnz       L114 ; 
 0073  68 10 10 00 00                    push      000001010H
 0078  6a 00                             push      000H
 007a  68 34 00 00 00                    push      offset L35
 007f  6a 00                             push      000H
 0081  e8 00 00 00 00                    call      MessageBoxA
 0086  8b 54 24 44                       mov       edx, dword ptr [esp+044H]
                               L114:
 008a  c6 42 68 00                       mov       byte ptr [edx+068H], 000H
 008e  52                                push      edx
 008f  e8 00 00 00 00                    call      L60
 0094  33 c0                             xor       eax, eax
 0096  e9 9c 03 00 00                    jmp       L130 ; 
                               L115:
 009b  33 c0                             xor       eax, eax
 009d  e9 95 03 00 00                    jmp       L130 ; 
                               L116:
 00a2  52                                push      edx
 00a3  89 54 24 04                       mov       dword ptr [esp+04H], edx
 00a7  e8 00 00 00 00                    call      L81
 00ac  8b 14 24                          mov       edx, dword ptr [esp]
 00af  52                                push      edx
 00b0  e8 00 00 00 00                    call      L66
 00b5  33 c0                             xor       eax, eax
 00b7  e9 7b 03 00 00                    jmp       L130 ; 
                               L117:
 00bc  81 fe 12 01 00 00                 cmp       esi, 000000112H
 00c2  0f 83 8c 01 00 00                 jnb       L123 ; 
 00c8  83 fe 06                          cmp       esi, 006H
 00cb  0f 86 90 00 00 00                 jbe       L120 ; 
 00d1  8d 4e f1                          lea       ecx, [esi-0FH]
 00d4  83 f9 01                          cmp       ecx, 001H
 00d7  0f 87 9a 02 00 00                 jnbe      L128 ; 
 00dd  83 f9 00                          cmp       ecx, 000H
 00e0  76 54                             jbe       L119 ; 
 00e2  8d 4a 74                          lea       ecx, [edx+074H]
 00e5  8b 01                             mov       eax, dword ptr [ecx]
 00e7  85 c0                             test      eax, eax
 00e9  74 10                             jz        L118 ; 
 00eb  ff 72 78                          push      dword ptr [edx+078H]
 00ee  51                                push      ecx
 00ef  89 54 24 08                       mov       dword ptr [esp+08H], edx
 00f3  e8 00 00 00 00                    call      Storage_DEALLOCATE
 00f8  8b 14 24                          mov       edx, dword ptr [esp]
                               L118:
 00fb  8d 44 24 44                       lea       eax, [esp+044H]
 00ff  89 54 24 44                       mov       dword ptr [esp+044H], edx
 0103  6a 7c                             push      07CH
 0105  50                                push      eax
 0106  e8 00 00 00 00                    call      Storage_DEALLOCATE
 010b  8b 0d 00 00 00 00                 mov       ecx, dword ptr [L0]
 0111  83 f9 01                          cmp       ecx, 001H
 0114  8b 54 24 44                       mov       edx, dword ptr [esp+044H]
 0118  8d 41 ff                          lea       eax, [ecx-01H]
 011b  a3 00 00 00 00                    mov       dword ptr [L0], eax
 0120  0f 85 51 02 00 00                 jnz       L128 ; 
 0126  6a 00                             push      000H
 0128  e8 00 00 00 00                    call      PostQuitMessage
 012d  8b 54 24 44                       mov       edx, dword ptr [esp+044H]
 0131  e9 41 02 00 00                    jmp       L128 ; 
                               L119:
 0136  8d 4c 24 04                       lea       ecx, [esp+04H]
 013a  51                                push      ecx
 013b  57                                push      edi
 013c  89 54 24 08                       mov       dword ptr [esp+08H], edx
 0140  e8 00 00 00 00                    call      BeginPaint
 0145  8b 14 24                          mov       edx, dword ptr [esp]
 0148  50                                push      eax
 0149  52                                push      edx
 014a  e8 00 00 00 00                    call      L64
 014f  8d 44 24 04                       lea       eax, [esp+04H]
 0153  50                                push      eax
 0154  57                                push      edi
 0155  e8 00 00 00 00                    call      EndPaint
 015a  33 c0                             xor       eax, eax
 015c  e9 d6 02 00 00                    jmp       L130 ; 
                               L120:
 0161  83 fe 01                          cmp       esi, 001H
 0164  76 33                             jbe       L121 ; 
 0166  83 fe 06                          cmp       esi, 006H
 0169  0f 85 08 02 00 00                 jnz       L128 ; 
 016f  55                                push      ebp
 0170  89 54 24 04                       mov       dword ptr [esp+04H], edx
 0174  e8 00 00 00 00                    call      LOWORD
 0179  25 ff ff 00 00                    and       eax, 00000FFFFH
 017e  8b 14 24                          mov       edx, dword ptr [esp]
 0181  0f 85 f0 01 00 00                 jnz       L128 ; 
 0187  52                                push      edx
 0188  89 54 24 04                       mov       dword ptr [esp+04H], edx
 018c  e8 00 00 00 00                    call      L105
 0191  8b 14 24                          mov       edx, dword ptr [esp]
 0194  e9 de 01 00 00                    jmp       L128 ; 
                               L121:
 0199  83 fe 01                          cmp       esi, 001H
 019c  0f 85 d5 01 00 00                 jnz       L128 ; 
 01a2  8d 4c 24 44                       lea       ecx, [esp+044H]
 01a6  89 54 24 44                       mov       dword ptr [esp+044H], edx
 01aa  6a 7c                             push      07CH
 01ac  51                                push      ecx
 01ad  e8 00 00 00 00                    call      Storage_ALLOCATE
 01b2  8b 54 24 44                       mov       edx, dword ptr [esp+044H]
 01b6  85 d2                             test      edx, edx
 01b8  0f 84 8c 00 00 00                 jz        L122 ; 
 01be  c7 42 74 00 00 00 00              mov       dword ptr [edx+074H], 000000000H
 01c5  8b 54 24 44                       mov       edx, dword ptr [esp+044H]
 01c9  c7 42 78 00 00 00 00              mov       dword ptr [edx+078H], 000000000H
 01d0  8b 54 24 44                       mov       edx, dword ptr [esp+044H]
 01d4  89 3a                             mov       dword ptr [edx], edi
 01d6  8b 54 24 44                       mov       edx, dword ptr [esp+044H]
 01da  c6 42 68 00                       mov       byte ptr [edx+068H], 000H
 01de  8b 54 24 44                       mov       edx, dword ptr [esp+044H]
 01e2  52                                push      edx
 01e3  6a eb                             push      0FFFFFFEBH
 01e5  57                                push      edi
 01e6  e8 00 00 00 00                    call      SetWindowLongA
 01eb  ff 05 00 00 00 00                 inc       dword ptr [L0]
 01f1  6a 00                             push      000H
 01f3  57                                push      edi
 01f4  e8 00 00 00 00                    call      GetSystemMenu
 01f9  8b f8                             mov       edi, eax
 01fb  68 64 00 00 00                    push      offset L39
 0200  68 e9 03 00 00                    push      0000003E9H
 0205  6a 00                             push      000H
 0207  57                                push      edi
 0208  e8 00 00 00 00                    call      AppendMenuA
 020d  68 5c 00 00 00                    push      offset L38
 0212  68 ea 03 00 00                    push      0000003EAH
 0217  6a 00                             push      000H
 0219  57                                push      edi
 021a  e8 00 00 00 00                    call      AppendMenuA
 021f  68 54 00 00 00                    push      offset L37
 0224  68 eb 03 00 00                    push      0000003EBH
 0229  6a 00                             push      000H
 022b  57                                push      edi
 022c  e8 00 00 00 00                    call      AppendMenuA
 0231  68 4c 00 00 00                    push      offset L36
 0236  68 ec 03 00 00                    push      0000003ECH
 023b  6a 00                             push      000H
 023d  57                                push      edi
 023e  e8 00 00 00 00                    call      AppendMenuA
 0243  33 c0                             xor       eax, eax
 0245  e9 ed 01 00 00                    jmp       L130 ; 
                               L122:
 024a  b8 ff ff ff ff                    mov       eax, 0FFFFFFFFH
 024f  e9 e3 01 00 00                    jmp       L130 ; 
                               L123:
 0254  81 fe 00 02 00 00                 cmp       esi, 000000200H
 025a  0f 83 10 01 00 00                 jnb       L127 ; 
 0260  81 fe 16 01 00 00                 cmp       esi, 000000116H
 0266  0f 87 0b 01 00 00                 jnbe      L128 ; 
 026c  ff 24 b5 fc ff ff ff              jmp       dword ptr [0FFFFFFFCH+esi*4]
 0273  89 54 24 44                       mov       dword ptr [esp+044H], edx
 0277  6a 00                             push      000H
 0279  57                                push      edi
 027a  e8 00 00 00 00                    call      GetSystemMenu
 027f  8b f8                             mov       edi, eax
 0281  6a 00                             push      000H
 0283  68 ec 03 00 00                    push      0000003ECH
 0288  57                                push      edi
 0289  e8 00 00 00 00                    call      EnableMenuItem
 028e  6a 00                             push      000H
 0290  68 e9 03 00 00                    push      0000003E9H
 0295  57                                push      edi
 0296  e8 00 00 00 00                    call      EnableMenuItem
 029b  8b 54 24 44                       mov       edx, dword ptr [esp+044H]
 029f  8b 42 74                          mov       eax, dword ptr [edx+074H]
 02a2  85 c0                             test      eax, eax
 02a4  74 13                             jz        L124 ; 
 02a6  6a 00                             push      000H
 02a8  68 eb 03 00 00                    push      0000003EBH
 02ad  57                                push      edi
 02ae  e8 00 00 00 00                    call      EnableMenuItem
 02b3  8b 54 24 44                       mov       edx, dword ptr [esp+044H]
 02b7  eb 11                             jmp       L125 ; 
                               L124:
 02b9  6a 01                             push      001H
 02bb  68 eb 03 00 00                    push      0000003EBH
 02c0  57                                push      edi
 02c1  e8 00 00 00 00                    call      EnableMenuItem
 02c6  8b 54 24 44                       mov       edx, dword ptr [esp+044H]
                               L125:
 02ca  8a 42 68                          mov       al, byte ptr [edx+068H]
 02cd  84 c0                             test      al, al
 02cf  74 14                             jz        L126 ; 
 02d1  6a 00                             push      000H
 02d3  68 ea 03 00 00                    push      0000003EAH
 02d8  57                                push      edi
 02d9  e8 00 00 00 00                    call      EnableMenuItem
 02de  33 c0                             xor       eax, eax
 02e0  e9 52 01 00 00                    jmp       L130 ; 
                               L126:
 02e5  6a 01                             push      001H
 02e7  68 ea 03 00 00                    push      0000003EAH
 02ec  57                                push      edi
 02ed  e8 00 00 00 00                    call      EnableMenuItem
 02f2  33 c0                             xor       eax, eax
 02f4  e9 3e 01 00 00                    jmp       L130 ; 
 02f9  55                                push      ebp
 02fa  89 54 24 04                       mov       dword ptr [esp+04H], edx
 02fe  e8 00 00 00 00                    call      LOWORD
 0303  05 17 fc ff ff                    add       eax, 0FFFFFC17H
 0308  66 3d 03 00                       cmp       ax, 00003H
 030c  8b 14 24                          mov       edx, dword ptr [esp]
 030f  77 66                             jnbe      L128 ; 
 0311  25 ff ff 00 00                    and       eax, 00000FFFFH
 0316  ff 24 85 58 04 00 00              jmp       dword ptr [000000458H+eax*4]
 031d  89 54 24 44                       mov       dword ptr [esp+044H], edx
 0321  6a 00                             push      000H
 0323  e8 00 00 00 00                    call      PostQuitMessage
 0328  33 c0                             xor       eax, eax
 032a  e9 08 01 00 00                    jmp       L130 ; 
 032f  52                                push      edx
 0330  e8 00 00 00 00                    call      L85
 0335  33 c0                             xor       eax, eax
 0337  e9 fb 00 00 00                    jmp       L130 ; 
 033c  89 54 24 44                       mov       dword ptr [esp+044H], edx
 0340  6a 00                             push      000H
 0342  6a 00                             push      000H
 0344  68 e9 07 00 00                    push      0000007E9H
 0349  57                                push      edi
 034a  e8 00 00 00 00                    call      PostMessageA
 034f  33 c0                             xor       eax, eax
 0351  e9 e1 00 00 00                    jmp       L130 ; 
 0356  89 54 24 44                       mov       dword ptr [esp+044H], edx
 035a  6a 00                             push      000H
 035c  6a 00                             push      000H
 035e  68 e8 07 00 00                    push      0000007E8H
 0363  57                                push      edi
 0364  e8 00 00 00 00                    call      PostMessageA
 0369  33 c0                             xor       eax, eax
 036b  e9 c7 00 00 00                    jmp       L130 ; 
                               L127:
 0370  ff 24 b5 68 fc ff ff              jmp       dword ptr [0FFFFFC68H+esi*4]
                               L128:
 0377  89 54 24 44                       mov       dword ptr [esp+044H], edx
 037b  53                                push      ebx
 037c  55                                push      ebp
 037d  56                                push      esi
 037e  57                                push      edi
 037f  e8 00 00 00 00                    call      DefWindowProcA
 0384  e9 ae 00 00 00                    jmp       L130 ; 
 0389  8a 4a 68                          mov       cl, byte ptr [edx+068H]
 038c  84 c9                             test      cl, cl
 038e  74 1a                             jz        L129 ; 
 0390  89 54 24 44                       mov       dword ptr [esp+044H], edx
 0394  6a 00                             push      000H
 0396  6a 00                             push      000H
 0398  68 e9 07 00 00                    push      0000007E9H
 039d  57                                push      edi
 039e  e8 00 00 00 00                    call      SendMessageA
 03a3  33 c0                             xor       eax, eax
 03a5  e9 8d 00 00 00                    jmp       L130 ; 
                               L129:
 03aa  89 54 24 44                       mov       dword ptr [esp+044H], edx
 03ae  6a 00                             push      000H
 03b0  6a 00                             push      000H
 03b2  68 e8 07 00 00                    push      0000007E8H
 03b7  57                                push      edi
 03b8  e8 00 00 00 00                    call      SendMessageA
 03bd  33 c0                             xor       eax, eax
 03bf  eb 76                             jmp       L130 ; 
 03c1  53                                push      ebx
 03c2  89 54 24 04                       mov       dword ptr [esp+04H], edx
 03c6  e8 00 00 00 00                    call      L112
 03cb  8b f8                             mov       edi, eax
 03cd  8b 14 24                          mov       edx, dword ptr [esp]
 03d0  53                                push      ebx
 03d1  89 54 24 04                       mov       dword ptr [esp+04H], edx
 03d5  e8 00 00 00 00                    call      L111
 03da  8b 14 24                          mov       edx, dword ptr [esp]
 03dd  57                                push      edi
 03de  50                                push      eax
 03df  52                                push      edx
 03e0  e8 00 00 00 00                    call      L101
 03e5  33 c0                             xor       eax, eax
 03e7  eb 4e                             jmp       L130 ; 
 03e9  53                                push      ebx
 03ea  89 54 24 04                       mov       dword ptr [esp+04H], edx
 03ee  e8 00 00 00 00                    call      L112
 03f3  8b f8                             mov       edi, eax
 03f5  8b 14 24                          mov       edx, dword ptr [esp]
 03f8  53                                push      ebx
 03f9  89 54 24 04                       mov       dword ptr [esp+04H], edx
 03fd  e8 00 00 00 00                    call      L111
 0402  8b 14 24                          mov       edx, dword ptr [esp]
 0405  57                                push      edi
 0406  50                                push      eax
 0407  52                                push      edx
 0408  e8 00 00 00 00                    call      L95
 040d  33 c0                             xor       eax, eax
 040f  eb 26                             jmp       L130 ; 
 0411  53                                push      ebx
 0412  89 54 24 04                       mov       dword ptr [esp+04H], edx
 0416  e8 00 00 00 00                    call      L112
 041b  8b f8                             mov       edi, eax
 041d  8b 14 24                          mov       edx, dword ptr [esp]
 0420  53                                push      ebx
 0421  89 54 24 04                       mov       dword ptr [esp+04H], edx
 0425  e8 00 00 00 00                    call      L111
 042a  8b 14 24                          mov       edx, dword ptr [esp]
 042d  57                                push      edi
 042e  50                                push      eax
 042f  52                                push      edx
 0430  e8 00 00 00 00                    call      L98
 0435  33 c0                             xor       eax, eax
                               L130:
 0437  83 ec b8                          sub       esp, 0FFFFFFB8H
 043a  5f                                pop       edi
 043b  5e                                pop       esi
 043c  5b                                pop       ebx
 043d  5d                                pop       ebp
 043e  c2 10 00                          ret       00010H
 0441  90                                nop       
 0442  90                                nop       
 0443  90                                nop       
 0444  f9                                stc       
 0445  02 00                             add       al, byte ptr [eax]
 0447  00 77 03                          add       byte ptr [edi+03H], dh
 044a  00 00                             add       byte ptr [eax], al
 044c  77 03                             jnbe      L131 ; 
 044e  00 00                             add       byte ptr [eax], al
 0450  77                                ; ??? incomplete command due to re-synchronization
                               L131:
 0451  03 00                             add       eax, dword ptr [eax]
 0453  00 73                             ; ??? incomplete command due to re-synchronization
                               L132:
 0455  02 00                             add       al, byte ptr [eax]
 0457  00 56 03                          add       byte ptr [esi+03H], dl
 045a  00 00                             add       byte ptr [eax], al
 045c  3c 03                             cmp       al, 003H
 045e  00 00                             add       byte ptr [eax], al
 0460  2f                                das       
 0461  03 00                             add       eax, dword ptr [eax]
 0463  00 1d 03 00 00 11                 add       byte ptr [01100046CH], bl
 0469  04 00                             add       al, 000H
 046b  00 e9                             add       cl, ch
 046d  03 00                             add       eax, dword ptr [eax]
 046f  00 c1                             add       cl, al
 0471  03 00                             add       eax, dword ptr [eax]
 0473  00 77 03                          add       byte ptr [edi+03H], dh
 0476  00 00                             add       byte ptr [eax], al
 0478  89 03                             mov       dword ptr [ebx], eax
 047a  00 00                             add       byte ptr [eax], al
 047c  90                                nop       
 047d  90                                nop       
 047e  90                                nop       
 047f  90                                nop       

 2 disassembly errors

--------------------------------------------------------------------------------
Segment:  _TEXT  PARA  USE32  0180 bytes

                               main:
 0000  e8 00 00 00 00                    call      X2C_InitFPP
 0005  e8 00 00 00 00                    call      X2C_INIT_HISTORY
 000a  8d 44 24 04                       lea       eax, [esp+04H]
 000e  68 80 c3 c9 01                    push      001C9C380H
 0013  68 40 78 7d 01                    push      0017D7840H
 0018  6a 01                             push      001H
 001a  ff 74 24 14                       push      dword ptr [esp+014H]
 001e  50                                push      eax
 001f  e8 00 00 00 00                    call      X2C_BEGIN
 0024  e8 00 00 00 00                    call      Storage_BEGIN
 0029  e8 00 00 00 00                    call      Strings_BEGIN
 002e  e8 00 00 00 00                    call      WholeStr_BEGIN
 0033  e8 00 00 00 00                    call      LongStr_BEGIN
 0038  c7 05 40 04 00 00 20 10 00 00     mov       dword ptr [L22], 000001020H
 0042  c7 05 44 04 00 00 00 00 00 00     mov       dword ptr [L23], offset L113
 004c  6a 00                             push      000H
 004e  c7 05 48 04 00 00 00 00 00 00     mov       dword ptr [L24], 000000000H
 0058  c7 05 4c 04 00 00 00 00 00 00     mov       dword ptr [L25], 000000000H
 0062  e8 00 00 00 00                    call      GetModuleHandleA
 0067  a3 50 04 00 00                    mov       dword ptr [L26], eax
 006c  c7 05 54 04 00 00 00 00 00 00     mov       dword ptr [L27], 000000000H
 0076  68 00 7f 00 00                    push      000007F00H
 007b  6a 00                             push      000H
 007d  e8 00 00 00 00                    call      LoadCursorA
 0082  a3 58 04 00 00                    mov       dword ptr [L28], eax
 0087  6a 00                             push      000H
 0089  6a 00                             push      000H
 008b  6a 00                             push      000H
 008d  e8 00 00 00 00                    call      RGB
 0092  50                                push      eax
 0093  e8 00 00 00 00                    call      CreateSolidBrush
 0098  68 40 04 00 00                    push      offset L22
 009d  a3 5c 04 00 00                    mov       dword ptr [L29], eax
 00a2  c7 05 60 04 00 00 00 00 00 00     mov       dword ptr [L30], 000000000H
 00ac  c7 05 64 04 00 00 70 00 00 00     mov       dword ptr [L31], offset L40
 00b6  e8 00 00 00 00                    call      RegisterClassA
 00bb  83 ec ec                          sub       esp, 0FFFFFFECH
 00be  25 ff ff 00 00                    and       eax, 00000FFFFH
 00c3  0f 84 96 00 00 00                 jz        L136 ; 
 00c9  e8 00 00 00 00                    call      L56
 00ce  e8 00 00 00 00                    call      L58
 00d3  c6 05 2c 04 00 00 00              mov       byte ptr [L16], 000H
 00da  c6 05 2d 04 00 00 00              mov       byte ptr [L17], 000H
 00e1  6a 01                             push      001H
 00e3  68 00 00 f8 3f                    push      03FF80000H
 00e8  6a 00                             push      000H
 00ea  68 00 00 f8 bf                    push      0BFF80000H
 00ef  6a 00                             push      000H
 00f1  68 00 00 f0 3f                    push      03FF00000H
 00f6  6a 00                             push      000H
 00f8  68 00 00 00 c0                    push      0C0000000H
 00fd  6a 00                             push      000H
 00ff  e8 00 00 00 00                    call      L109
 0104  85 c0                             test      eax, eax
 0106  74 3d                             jz        L135 ; 
 0108  6a 00                             push      000H
 010a  6a 00                             push      000H
 010c  6a 00                             push      000H
 010e  68 68 04 00 00                    push      offset L32
 0113  e8 00 00 00 00                    call      GetMessageA
 0118  85 c0                             test      eax, eax
 011a  74 28                             jz        L134 ; 
                               L133:
 011c  68 68 04 00 00                    push      offset L32
 0121  e8 00 00 00 00                    call      TranslateMessage
 0126  68 68 04 00 00                    push      offset L32
 012b  e8 00 00 00 00                    call      DispatchMessageA
 0130  6a 00                             push      000H
 0132  6a 00                             push      000H
 0134  6a 00                             push      000H
 0136  68 68 04 00 00                    push      offset L32
 013b  e8 00 00 00 00                    call      GetMessageA
 0140  85 c0                             test      eax, eax
 0142  75 d8                             jnz       L133 ; 
                               L134:
 0144  c3                                ret       
                               L135:
 0145  68 10 10 00 00                    push      000001010H
 014a  6a 00                             push      000H
 014c  68 00 00 00 00                    push      offset L33
 0151  6a 00                             push      000H
 0153  e8 00 00 00 00                    call      MessageBoxA
 0158  6a 01                             push      001H
 015a  e8 00 00 00 00                    call      X2C_HALT
                               L136:
 015f  68 10 10 00 00                    push      000001010H
 0164  6a 00                             push      000H
 0166  68 1c 00 00 00                    push      offset L34
 016b  6a 00                             push      000H
 016d  e8 00 00 00 00                    call      MessageBoxA
 0172  6a 01                             push      001H
 0174  e8 00 00 00 00                    call      X2C_HALT
 0179  90                                nop       
 017a  90                                nop       
 017b  90                                nop       
 017c  90                                nop       
 017d  90                                nop       
 017e  90                                nop       
 017f  90                                nop       

 No disassembly errors
